; Function Attrs: mustprogress nofree norecurse nosync nounwind willreturn memory(readwrite, inaccessiblemem: none) uwtable
define void @_ZN5draco17PointCloudBuilder20SetAttributeUniqueIdEij(ptr noundef nonnull readonly align 8 captures(none) dereferenceable(8) %0, i32 noundef %1, i32 noundef %2) local_unnamed_addr #8 align 2 {
  %4 = load ptr, ptr %0, align 8, !tbaa !9
  %5 = getelementptr inbounds nuw i8, ptr %4, i64 16
  %6 = sext i32 %1 to i64
  %7 = load ptr, ptr %5, align 8, !tbaa !27
  %8 = getelementptr inbounds nuw %"class.std::unique_ptr.42", ptr %7, i64 %6
  %9 = load ptr, ptr %8, align 8, !tbaa !28
  %10 = getelementptr inbounds nuw i8, ptr %9, i64 60
  store i32 %2, ptr %10, align 4, !tbaa !72
  ret void
}